; Function Attrs: mustprogress nounwind uwtable
define hidden noundef zeroext i1 @_ZN12PhaseChaitin10prompt_useEP5Blockj(ptr nocapture noundef nonnull readonly align 8 dereferenceable(364) %0, ptr nocapture noundef readonly %1, i32 noundef %2) local_unnamed_addr #0 align 2 {
  %4 = getelementptr inbounds i8, ptr %0, i64 112
  %5 = load ptr, ptr %4, align 8
  %6 = getelementptr inbounds i8, ptr %5, i64 32
  %7 = load ptr, ptr %6, align 8
  %8 = zext i32 %2 to i64
  %9 = getelementptr inbounds %class.LRG, ptr %7, i64 %8, i32 15
  %10 = load i16, ptr %9, align 2
  %11 = and i16 %10, 64
  %.not = icmp eq i16 %11, 0
  br i1 %.not, label %.preheader20, label %.loopexit

.preheader20:                                     ; preds = %3
  %12 = getelementptr inbounds i8, ptr %1, i64 40
  %13 = getelementptr inbounds i8, ptr %1, i64 24
  %14 = getelementptr inbounds i8, ptr %1, i64 32
  %15 = getelementptr inbounds i8, ptr %1, i64 72
  %16 = getelementptr inbounds i8, ptr %0, i64 264
  br label %17

17:                                               ; preds = %.preheader20, %_ZNK7RegMask11is_NotEmptyEv.exit.thread
  %.016 = phi i32 [ %78, %_ZNK7RegMask11is_NotEmptyEv.exit.thread ], [ 1, %.preheader20 ]
  %18 = load i32, ptr %12, align 8
  %19 = add i32 %18, -1
  %20 = load i32, ptr %13, align 8
  %21 = icmp ugt i32 %20, %19
  br i1 %21, label %22, label %_ZNK5Block7end_idxEv.exit

22:                                               ; preds = %17
  %23 = load ptr, ptr %14, align 8
  %24 = zext i32 %19 to i64
  %25 = getelementptr inbounds ptr, ptr %23, i64 %24
  %26 = load ptr, ptr %25, align 8
  br label %_ZNK5Block7end_idxEv.exit

_ZNK5Block7end_idxEv.exit:                        ; preds = %17, %22
  %27 = phi ptr [ %26, %22 ], [ null, %17 ]
  %28 = load ptr, ptr %27, align 8
  %29 = getelementptr inbounds i8, ptr %28, i64 32
  %30 = load ptr, ptr %29, align 8
  %31 = tail call noundef ptr %30(ptr noundef nonnull align 8 dereferenceable(52) %27) #9
  %32 = icmp eq ptr %31, %27
  %33 = load i32, ptr %15, align 8
  %34 = select i1 %32, i32 0, i32 %33
  %35 = sub i32 %19, %34
  %.not17 = icmp ugt i32 %.016, %35
  br i1 %.not17, label %.loopexit, label %36

36:                                               ; preds = %_ZNK5Block7end_idxEv.exit
  %37 = load i32, ptr %13, align 8
  %38 = icmp ugt i32 %37, %.016
  br i1 %38, label %39, label %_ZNK5Block8get_nodeEj.exit

39:                                               ; preds = %36
  %40 = load ptr, ptr %14, align 8
  %41 = zext i32 %.016 to i64
  %42 = getelementptr inbounds ptr, ptr %40, i64 %41
  %43 = load ptr, ptr %42, align 8
  br label %_ZNK5Block8get_nodeEj.exit

_ZNK5Block8get_nodeEj.exit:                       ; preds = %36, %39
  %44 = phi ptr [ %43, %39 ], [ null, %36 ]
  %45 = getelementptr inbounds i8, ptr %44, i64 44
  %46 = load i32, ptr %45, align 4
  %47 = and i32 %46, 15
  %48 = icmp eq i32 %47, 12
  br i1 %48, label %_ZNK7RegMask11is_NotEmptyEv.exit.thread, label %.preheader

.preheader:                                       ; preds = %_ZNK5Block8get_nodeEj.exit
  %49 = getelementptr inbounds i8, ptr %44, i64 24
  %50 = load i32, ptr %49, align 8
  %51 = icmp ugt i32 %50, 1
  br i1 %51, label %.lr.ph, label %._crit_edge

.lr.ph:                                           ; preds = %.preheader
  %52 = getelementptr inbounds i8, ptr %44, i64 8
  %53 = load ptr, ptr %52, align 8
  %54 = load ptr, ptr %16, align 8
  %wide.trip.count = zext i32 %50 to i64
  br label %56

55:                                               ; preds = %56
  %indvars.iv.next = add nuw nsw i64 %indvars.iv, 1
  %exitcond.not = icmp eq i64 %indvars.iv.next, %wide.trip.count
  br i1 %exitcond.not, label %._crit_edge, label %56, !llvm.loop !14

56:                                               ; preds = %.lr.ph, %55
  %indvars.iv = phi i64 [ 1, %.lr.ph ], [ %indvars.iv.next, %55 ]
  %57 = getelementptr inbounds ptr, ptr %53, i64 %indvars.iv
  %58 = load ptr, ptr %57, align 8
  %59 = getelementptr inbounds i8, ptr %58, i64 40
  %60 = load i32, ptr %59, align 8
  %61 = sext i32 %60 to i64
  %62 = getelementptr inbounds i32, ptr %54, i64 %61
  %63 = load i32, ptr %62, align 4
  %64 = icmp eq i32 %63, %2
  br i1 %64, label %.loopexit, label %55

._crit_edge:                                      ; preds = %55, %.preheader
  %65 = load ptr, ptr %44, align 8
  %66 = getelementptr inbounds i8, ptr %65, i64 128
  %67 = load ptr, ptr %66, align 8
  %68 = tail call noundef nonnull align 8 dereferenceable(96) ptr %67(ptr noundef nonnull align 8 dereferenceable(52) %44) #9
  %69 = getelementptr inbounds i8, ptr %68, i64 88
  %70 = load i32, ptr %69, align 8
  %71 = getelementptr inbounds i8, ptr %68, i64 92
  %72 = load i32, ptr %71, align 4
  %.not6.i = icmp ugt i32 %70, %72
  br i1 %.not6.i, label %_ZNK7RegMask11is_NotEmptyEv.exit.thread, label %.lr.ph.i

.lr.ph.i:                                         ; preds = %._crit_edge, %.lr.ph.i
  %.08.i = phi i32 [ %77, %.lr.ph.i ], [ %70, %._crit_edge ]
  %.057.i = phi i64 [ %76, %.lr.ph.i ], [ 0, %._crit_edge ]
  %73 = zext i32 %.08.i to i64
  %74 = getelementptr inbounds [11 x i64], ptr %68, i64 0, i64 %73
  %75 = load i64, ptr %74, align 8
  %76 = or i64 %75, %.057.i
  %77 = add i32 %.08.i, 1
  %.not.i = icmp ugt i32 %77, %72
  br i1 %.not.i, label %_ZNK7RegMask11is_NotEmptyEv.exit, label %.lr.ph.i, !llvm.loop !15

_ZNK7RegMask11is_NotEmptyEv.exit:                 ; preds = %.lr.ph.i
  %.not19 = icmp eq i64 %76, 0
  br i1 %.not19, label %_ZNK7RegMask11is_NotEmptyEv.exit.thread, label %.loopexit

_ZNK7RegMask11is_NotEmptyEv.exit.thread:          ; preds = %._crit_edge, %_ZNK7RegMask11is_NotEmptyEv.exit, %_ZNK5Block8get_nodeEj.exit
  %78 = add i32 %.016, 1
  br label %17, !llvm.loop !16

.loopexit:                                        ; preds = %_ZNK5Block7end_idxEv.exit, %_ZNK7RegMask11is_NotEmptyEv.exit, %56, %3
  %.015 = phi i1 [ false, %3 ], [ true, %56 ], [ false, %_ZNK7RegMask11is_NotEmptyEv.exit ], [ false, %_ZNK5Block7end_idxEv.exit ]
  ret i1 %.015
}